target datalayout = "e-m:e-p270:32:32-p271:32:32-p272:64:64-i64:64-i128:128-f80:128-n8:16:32:64-S128"
target triple = "x86_64-pc-linux-gnu"

%struct.Vector = type { double, double, double }
%struct.Complex = type { double, double }
%struct.Qureg = type { i32, i32, i32, i64, i64, i32, i32, %struct.ComplexArray, %struct.ComplexArray, %struct.ComplexArray, ptr, ptr, ptr, ptr, ptr, ptr }
%struct.ComplexArray = type { ptr, ptr }

@__const.statevec_rotateX.unitAxis = private unnamed_addr constant %struct.Vector { double 1.000000e+00, double 0.000000e+00, double 0.000000e+00 }, align 8

; Function Attrs: nounwind uwtable
define double @getVectorMagnitude(ptr noundef byval(%struct.Vector) align 8 %0) #0 {
  %2 = getelementptr inbounds nuw %struct.Vector, ptr %0, i32 0, i32 0
  %3 = load double, ptr %2, align 8, !tbaa !13
  %4 = getelementptr inbounds nuw %struct.Vector, ptr %0, i32 0, i32 0
  %5 = load double, ptr %4, align 8, !tbaa !13
  %6 = getelementptr inbounds nuw %struct.Vector, ptr %0, i32 0, i32 1
  %7 = load double, ptr %6, align 8, !tbaa !16
  %8 = getelementptr inbounds nuw %struct.Vector, ptr %0, i32 0, i32 1
  %9 = load double, ptr %8, align 8, !tbaa !16
  %10 = fmul double %7, %9
  %11 = call double @llvm.fmuladd.f64(double %3, double %5, double %10)
  %12 = getelementptr inbounds nuw %struct.Vector, ptr %0, i32 0, i32 2
  %13 = load double, ptr %12, align 8, !tbaa !17
  %14 = getelementptr inbounds nuw %struct.Vector, ptr %0, i32 0, i32 2
  %15 = load double, ptr %14, align 8, !tbaa !17
  %16 = call double @llvm.fmuladd.f64(double %13, double %15, double %11)
  %17 = call double @sqrt(double noundef %16) #8, !tbaa !9
  ret double %17
}

; Function Attrs: nounwind uwtable
define void @getUnitVector(ptr dead_on_unwind noalias writable sret(%struct.Vector) align 8 %0, ptr noundef byval(%struct.Vector) align 8 %1) #0 {
  %3 = alloca double, align 8
  call void @llvm.lifetime.start.p0(i64 8, ptr %3) #8
  %4 = call double @getVectorMagnitude(ptr noundef byval(%struct.Vector) align 8 %1)
  store double %4, ptr %3, align 8, !tbaa !18
  %5 = getelementptr inbounds nuw %struct.Vector, ptr %0, i32 0, i32 0
  %6 = getelementptr inbounds nuw %struct.Vector, ptr %1, i32 0, i32 0
  %7 = load double, ptr %6, align 8, !tbaa !13
  %8 = load double, ptr %3, align 8, !tbaa !18
  %9 = fdiv double %7, %8
  store double %9, ptr %5, align 8, !tbaa !13
  %10 = getelementptr inbounds nuw %struct.Vector, ptr %0, i32 0, i32 1
  %11 = getelementptr inbounds nuw %struct.Vector, ptr %1, i32 0, i32 1
  %12 = load double, ptr %11, align 8, !tbaa !16
  %13 = load double, ptr %3, align 8, !tbaa !18
  %14 = fdiv double %12, %13
  store double %14, ptr %10, align 8, !tbaa !16
  %15 = getelementptr inbounds nuw %struct.Vector, ptr %0, i32 0, i32 2
  %16 = getelementptr inbounds nuw %struct.Vector, ptr %1, i32 0, i32 2
  %17 = load double, ptr %16, align 8, !tbaa !17
  %18 = load double, ptr %3, align 8, !tbaa !18
  %19 = fdiv double %17, %18
  store double %19, ptr %15, align 8, !tbaa !17
  call void @llvm.lifetime.end.p0(i64 8, ptr %3) #8
  ret void
}

; Function Attrs: nounwind uwtable
define void @getComplexPairFromRotation(double noundef %0, ptr noundef byval(%struct.Vector) align 8 %1, ptr noundef %2, ptr noundef %3) #0 {
  %5 = alloca double, align 8
  %6 = alloca ptr, align 8
  %7 = alloca ptr, align 8
  %8 = alloca %struct.Vector, align 8
  store double %0, ptr %5, align 8, !tbaa !18
  store ptr %2, ptr %6, align 8, !tbaa !30
  store ptr %3, ptr %7, align 8, !tbaa !30
  call void @llvm.lifetime.start.p0(i64 24, ptr %8) #8
  call void @getUnitVector(ptr dead_on_unwind writable sret(%struct.Vector) align 8 %8, ptr noundef byval(%struct.Vector) align 8 %1)
  %9 = load double, ptr %5, align 8, !tbaa !18
  %10 = fdiv double %9, 2.000000e+00
  %11 = call double @cos(double noundef %10) #8, !tbaa !9
  %12 = load ptr, ptr %6, align 8, !tbaa !30
  %13 = getelementptr inbounds nuw %struct.Complex, ptr %12, i32 0, i32 0
  store double %11, ptr %13, align 8, !tbaa !19
  %14 = load double, ptr %5, align 8, !tbaa !18
  %15 = fdiv double %14, 2.000000e+00
  %16 = call double @sin(double noundef %15) #8, !tbaa !9
  %17 = fneg double %16
  %18 = getelementptr inbounds nuw %struct.Vector, ptr %8, i32 0, i32 2
  %19 = load double, ptr %18, align 8, !tbaa !17
  %20 = fmul double %17, %19
  %21 = load ptr, ptr %6, align 8, !tbaa !30
  %22 = getelementptr inbounds nuw %struct.Complex, ptr %21, i32 0, i32 1
  store double %20, ptr %22, align 8, !tbaa !21
  %23 = load double, ptr %5, align 8, !tbaa !18
  %24 = fdiv double %23, 2.000000e+00
  %25 = call double @sin(double noundef %24) #8, !tbaa !9
  %26 = getelementptr inbounds nuw %struct.Vector, ptr %8, i32 0, i32 1
  %27 = load double, ptr %26, align 8, !tbaa !16
  %28 = fmul double %25, %27
  %29 = load ptr, ptr %7, align 8, !tbaa !30
  %30 = getelementptr inbounds nuw %struct.Complex, ptr %29, i32 0, i32 0
  store double %28, ptr %30, align 8, !tbaa !19
  %31 = load double, ptr %5, align 8, !tbaa !18
  %32 = fdiv double %31, 2.000000e+00
  %33 = call double @sin(double noundef %32) #8, !tbaa !9
  %34 = fneg double %33
  %35 = getelementptr inbounds nuw %struct.Vector, ptr %8, i32 0, i32 0
  %36 = load double, ptr %35, align 8, !tbaa !13
  %37 = fmul double %34, %36
  %38 = load ptr, ptr %7, align 8, !tbaa !30
  %39 = getelementptr inbounds nuw %struct.Complex, ptr %38, i32 0, i32 1
  store double %37, ptr %39, align 8, !tbaa !21
  call void @llvm.lifetime.end.p0(i64 24, ptr %8) #8
  ret void
}

; Function Attrs: nounwind uwtable
define void @statevec_rotateAroundAxis(ptr noundef byval(%struct.Qureg) align 8 %0, i32 noundef %1, double noundef %2, ptr noundef byval(%struct.Vector) align 8 %3) #0 {
  %5 = alloca i32, align 4
  %6 = alloca double, align 8
  %7 = alloca %struct.Complex, align 8
  %8 = alloca %struct.Complex, align 8
  store i32 %1, ptr %5, align 4, !tbaa !9
  store double %2, ptr %6, align 8, !tbaa !18
  call void @llvm.lifetime.start.p0(i64 16, ptr %7) #8
  call void @llvm.lifetime.start.p0(i64 16, ptr %8) #8
  %9 = load double, ptr %6, align 8, !tbaa !18
  call void @getComplexPairFromRotation(double noundef %9, ptr noundef byval(%struct.Vector) align 8 %3, ptr noundef %7, ptr noundef %8)
  %10 = load i32, ptr %5, align 4, !tbaa !9
  %11 = getelementptr inbounds nuw { double, double }, ptr %7, i32 0, i32 0
  %12 = load double, ptr %11, align 8
  %13 = getelementptr inbounds nuw { double, double }, ptr %7, i32 0, i32 1
  %14 = load double, ptr %13, align 8
  %15 = getelementptr inbounds nuw { double, double }, ptr %8, i32 0, i32 0
  %16 = load double, ptr %15, align 8
  %17 = getelementptr inbounds nuw { double, double }, ptr %8, i32 0, i32 1
  %18 = load double, ptr %17, align 8
  call void @statevec_compactUnitary(ptr noundef byval(%struct.Qureg) align 8 %0, i32 noundef %10, double %12, double %14, double %16, double %18)
  call void @llvm.lifetime.end.p0(i64 16, ptr %8) #8
  call void @llvm.lifetime.end.p0(i64 16, ptr %7) #8
  ret void
}

; Function Attrs: nounwind uwtable
define void @statevec_rotateX(ptr noundef byval(%struct.Qureg) align 8 %0, i32 noundef %1, double noundef %2) #0 {
  %4 = alloca i32, align 4
  %5 = alloca double, align 8
  %6 = alloca %struct.Vector, align 8
  store i32 %1, ptr %4, align 4, !tbaa !9
  store double %2, ptr %5, align 8, !tbaa !18
  call void @llvm.lifetime.start.p0(i64 24, ptr %6) #8
  call void @llvm.memcpy.p0.p0.i64(ptr align 8 %6, ptr align 8 @__const.statevec_rotateX.unitAxis, i64 24, i1 false)
  %7 = load i32, ptr %4, align 4, !tbaa !9
  %8 = load double, ptr %5, align 8, !tbaa !18
  call void @statevec_rotateAroundAxis(ptr noundef byval(%struct.Qureg) align 8 %0, i32 noundef %7, double noundef %8, ptr noundef byval(%struct.Vector) align 8 %6)
  call void @llvm.lifetime.end.p0(i64 24, ptr %6) #8
  ret void
}