; Function Attrs: nounwind uwtable
define void @statevec_rotateX(ptr noundef readonly byval(%struct.Qureg) align 8 captures(none) %0, i32 noundef %1, double noundef %2) local_unnamed_addr #11 {
  %4 = fmul double %2, 5.000000e-01
  %5 = tail call double @cos(double noundef %4) #22, !tbaa !4
  %6 = tail call double @sin(double noundef %4) #22, !tbaa !4
  %7 = fmul double %6, -0.000000e+00
  %8 = tail call double @sin(double noundef %4) #22, !tbaa !4
  %9 = fmul double %8, 0.000000e+00
  %10 = tail call double @sin(double noundef %4) #22, !tbaa !4
  %11 = fneg double %10
  tail call void @statevec_compactUnitary(ptr noundef nonnull byval(%struct.Qureg) align 8 %0, i32 noundef %1, double %5, double %7, double %9, double %11) #22
  ret void
}